(lp0
S'poi'
p1
aS'salary'
p2
aS'bonus'
p3
aS'fraction_from_poi_email'
p4
aS'fraction_to_poi_email'
p5
aS'deferral_payments'
p6
aS'total_payments'
p7
aS'loan_advances'
p8
aS'restricted_stock_deferred'
p9
aS'deferred_income'
p10
aS'total_stock_value'
p11
a.